target datalayout = "e-m:e-p270:32:32-p271:32:32-p272:64:64-i64:64-i128:128-f80:128-n8:16:32:64-S128"
target triple = "x86_64-pc-linux-gnu"

%struct.SDL_DriverXboxOne_Context = type { ptr, i16, i16, i32, i64, i8, i64, i8, i8, i8, i8, i8, i8, i8, i8, i8, i8, i8, i32, i64, i8, [64 x i8], ptr, i32 }
%struct.SDL_HIDAPI_Device = type { ptr, ptr, ptr, ptr, i16, i16, i16, ptr, %struct.SDL_GUID, i32, i32, i32, i32, i16, i16, i8, i32, i32, i32, ptr, ptr, ptr, ptr, %struct.SDL_AtomicInt, i32, ptr, i8, i8, i8, ptr, i32, ptr, ptr }
%struct.SDL_GUID = type { [16 x i8] }
%struct.SDL_AtomicInt = type { i32 }

; Function Attrs: nounwind uwtable
define internal zeroext i1 @HIDAPI_DriverXboxOne_RumbleJoystick(ptr noundef %0, ptr noundef %1, i16 noundef zeroext %2, i16 noundef zeroext %3) #0 {
  %5 = alloca ptr, align 8
  %6 = alloca ptr, align 8
  %7 = alloca i16, align 2
  %8 = alloca i16, align 2
  %9 = alloca ptr, align 8
  store ptr %0, ptr %5, align 8
  store ptr %1, ptr %6, align 8
  store i16 %2, ptr %7, align 2
  store i16 %3, ptr %8, align 2
  call void @llvm.lifetime.start.p0(i64 8, ptr %9) #6
  %10 = load ptr, ptr %5, align 8
  %11 = getelementptr inbounds nuw %struct.SDL_HIDAPI_Device, ptr %10, i32 0, i32 20
  %12 = load ptr, ptr %11, align 8
  store ptr %12, ptr %9, align 8
  %13 = load i16, ptr %7, align 2
  %14 = zext i16 %13 to i32
  %15 = sdiv i32 %14, 655
  %16 = trunc i32 %15 to i8
  %17 = load ptr, ptr %9, align 8
  %18 = getelementptr inbounds nuw %struct.SDL_DriverXboxOne_Context, ptr %17, i32 0, i32 14
  store i8 %16, ptr %18, align 1
  %19 = load i16, ptr %8, align 2
  %20 = zext i16 %19 to i32
  %21 = sdiv i32 %20, 655
  %22 = trunc i32 %21 to i8
  %23 = load ptr, ptr %9, align 8
  %24 = getelementptr inbounds nuw %struct.SDL_DriverXboxOne_Context, ptr %23, i32 0, i32 15
  store i8 %22, ptr %24, align 8
  %25 = load ptr, ptr %9, align 8
  %26 = getelementptr inbounds nuw %struct.SDL_DriverXboxOne_Context, ptr %25, i32 0, i32 20
  store i8 1, ptr %26, align 8
  %27 = load ptr, ptr %9, align 8
  %28 = call zeroext i1 @HIDAPI_DriverXboxOne_UpdateRumble(ptr noundef %27)
  call void @llvm.lifetime.end.p0(i64 8, ptr %9) #6
  ret i1 %28
}