; Function Attrs: nounwind uwtable
define internal zeroext i1 @HIDAPI_DriverXboxOne_RumbleJoystick(ptr noundef readonly captures(none) %0, ptr readnone captures(none) %1, i16 noundef zeroext %2, i16 noundef zeroext %3) #0 {
  %5 = getelementptr inbounds nuw i8, ptr %0, i64 112
  %6 = load ptr, ptr %5, align 8
  %7 = udiv i16 %2, 655
  %8 = trunc nuw nsw i16 %7 to i8
  %9 = getelementptr inbounds nuw i8, ptr %6, i64 47
  store i8 %8, ptr %9, align 1
  %10 = udiv i16 %3, 655
  %11 = trunc nuw nsw i16 %10 to i8
  %12 = getelementptr inbounds nuw i8, ptr %6, i64 48
  store i8 %11, ptr %12, align 8
  %13 = getelementptr inbounds nuw i8, ptr %6, i64 64
  store i8 1, ptr %13, align 8
  %14 = tail call fastcc zeroext i1 @HIDAPI_DriverXboxOne_UpdateRumble(ptr noundef %6)
  ret i1 %14
}